target datalayout = "e-m:e-p270:32:32-p271:32:32-p272:64:64-i64:64-i128:128-f80:128-n8:16:32:64-S128"
target triple = "x86_64-pc-linux-gnu"

%struct.CORD_Pos = type { i64, i32, ptr, i64, i64, [49 x %struct.CORD_pe], [8 x i8] }
%struct.CORD_pe = type { ptr, i64 }

; Function Attrs: nounwind uwtable
define void @CORD_set_pos(ptr noundef %0, ptr noundef %1, i64 noundef %2) #0 {
  %4 = alloca ptr, align 8
  %5 = alloca ptr, align 8
  %6 = alloca i64, align 8
  store ptr %0, ptr %4, align 8, !tbaa !53
  store ptr %1, ptr %5, align 8, !tbaa !7
  store i64 %2, ptr %6, align 8, !tbaa !13
  %7 = load ptr, ptr %5, align 8, !tbaa !7
  %8 = icmp eq ptr %7, null
  br i1 %8, label %9, label %13

9:                                                ; preds = %3
  %10 = load ptr, ptr %4, align 8, !tbaa !53
  %11 = getelementptr inbounds %struct.CORD_Pos, ptr %10, i64 0
  %12 = getelementptr inbounds nuw %struct.CORD_Pos, ptr %11, i32 0, i32 1
  store i32 1431655765, ptr %12, align 8, !tbaa !55
  br label %33

13:                                               ; preds = %3
  %14 = load ptr, ptr %5, align 8, !tbaa !7
  %15 = load ptr, ptr %4, align 8, !tbaa !53
  %16 = getelementptr inbounds %struct.CORD_Pos, ptr %15, i64 0
  %17 = getelementptr inbounds nuw %struct.CORD_Pos, ptr %16, i32 0, i32 5
  %18 = getelementptr inbounds [49 x %struct.CORD_pe], ptr %17, i64 0, i64 0
  %19 = getelementptr inbounds nuw %struct.CORD_pe, ptr %18, i32 0, i32 0
  store ptr %14, ptr %19, align 8, !tbaa !59
  %20 = load ptr, ptr %4, align 8, !tbaa !53
  %21 = getelementptr inbounds %struct.CORD_Pos, ptr %20, i64 0
  %22 = getelementptr inbounds nuw %struct.CORD_Pos, ptr %21, i32 0, i32 5
  %23 = getelementptr inbounds [49 x %struct.CORD_pe], ptr %22, i64 0, i64 0
  %24 = getelementptr inbounds nuw %struct.CORD_pe, ptr %23, i32 0, i32 1
  store i64 0, ptr %24, align 8, !tbaa !62
  %25 = load ptr, ptr %4, align 8, !tbaa !53
  %26 = getelementptr inbounds %struct.CORD_Pos, ptr %25, i64 0
  %27 = getelementptr inbounds nuw %struct.CORD_Pos, ptr %26, i32 0, i32 1
  store i32 0, ptr %27, align 8, !tbaa !55
  %28 = load i64, ptr %6, align 8, !tbaa !13
  %29 = load ptr, ptr %4, align 8, !tbaa !53
  %30 = getelementptr inbounds %struct.CORD_Pos, ptr %29, i64 0
  %31 = getelementptr inbounds nuw %struct.CORD_Pos, ptr %30, i32 0, i32 0
  store i64 %28, ptr %31, align 8, !tbaa !61
  %32 = load ptr, ptr %4, align 8, !tbaa !53
  call void @CORD_extend_path(ptr noundef %32)
  br label %33

33:                                               ; preds = %13, %9
  ret void
}