; Function Attrs: nofree nounwind memory(read, argmem: readwrite, inaccessiblemem: none) uwtable
define void @CORD_set_pos(ptr noundef captures(none) initializes((8, 12)) %0, ptr noundef %1, i64 noundef %2) local_unnamed_addr #11 {
  %4 = icmp eq ptr %1, null
  br i1 %4, label %5, label %7

5:                                                ; preds = %3
  %6 = getelementptr inbounds nuw i8, ptr %0, i64 8
  store i32 1431655765, ptr %6, align 8, !tbaa !47
  br label %11

7:                                                ; preds = %3
  %8 = getelementptr inbounds nuw i8, ptr %0, i64 40
  store ptr %1, ptr %8, align 8, !tbaa !50
  %9 = getelementptr inbounds nuw i8, ptr %0, i64 48
  store i64 0, ptr %9, align 8, !tbaa !53
  %10 = getelementptr inbounds nuw i8, ptr %0, i64 8
  store i32 0, ptr %10, align 8, !tbaa !47
  store i64 %2, ptr %0, align 8, !tbaa !52
  tail call fastcc void @CORD_extend_path(ptr noundef nonnull %0)
  br label %11

11:                                               ; preds = %7, %5
  ret void
}